target datalayout = "e-m:e-p270:32:32-p271:32:32-p272:64:64-i64:64-i128:128-f80:128-n8:16:32:64-S128"
target triple = "x86_64-pc-linux-gnu"

%struct.AVCodecContext = type { ptr, i32, i32, ptr, i32, i32, ptr, ptr, ptr, i64, i32, i32, ptr, i32, %struct.AVRational, %struct.AVRational, %struct.AVRational, i32, i32, i32, i32, i32, %struct.AVRational, i32, i32, i32, i32, i32, i32, i32, i32, i32, i32, i32, ptr, ptr, i32, float, float, float, float, float, float, float, float, float, i32, i32, i32, i32, i32, i32, i32, i32, i32, i32, i32, i32, ptr, ptr, ptr, i32, i32, i32, i32, i32, i32, i32, i32, i32, i32, %struct.AVChannelLayout, i32, i32, i32, i32, i32, i32, i32, i32, ptr, i32, i32, i32, float, float, i32, i32, i32, i32, i32, ptr, i64, i64, float, float, i32, i32, ptr, ptr, i32, i32, i32, i32, i32, ptr, ptr, ptr, ptr, i32, i32, [8 x i64], i32, i32, i32, i32, i32, i32, i32, ptr, ptr, i32, i32, i32, i32, i32, i32, i32, i32, i32, i32, ptr, ptr, i32, i32, ptr, ptr, ptr, ptr, i32, i32, i64, i32, i32, i64, ptr, i64, ptr, i32, ptr, i32 }
%struct.AVRational = type { i32, i32 }
%struct.AVChannelLayout = type { i32, i32, %union.anon.1, ptr }
%union.anon.1 = type { i64 }
%struct.GIFContext = type { ptr, ptr, ptr, ptr, i32, ptr, i32, i32, i32, [256 x i32], i32, i32, ptr }

@.str.16 = private unnamed_addr constant [52 x i8] c"GIF does not support resolutions above 65535x65535\0A\00", align 1
@ff_lzw_encode_state_size = external constant i32, align 4
@.str.17 = private unnamed_addr constant [30 x i8] c"Assertion %s failed at %s:%d\0A\00", align 1
@.str.18 = private unnamed_addr constant [34 x i8] c"avctx->pix_fmt == AV_PIX_FMT_PAL8\00", align 1
@.str.19 = private unnamed_addr constant [17 x i8] c"libavcodec/gif.c\00", align 1

; Function Attrs: cold nounwind optsize uwtable
define internal i32 @gif_encode_init(ptr noundef %0) #0 {
  %2 = alloca i32, align 4
  %3 = alloca ptr, align 8
  %4 = alloca ptr, align 8
  %5 = alloca i32, align 4
  store ptr %0, ptr %3, align 8, !tbaa !4
  call void @llvm.lifetime.start.p0(i64 8, ptr %4) #10
  %6 = load ptr, ptr %3, align 8, !tbaa !4
  %7 = getelementptr inbounds nuw %struct.AVCodecContext, ptr %6, i32 0, i32 6
  %8 = load ptr, ptr %7, align 8, !tbaa !9
  store ptr %8, ptr %4, align 8, !tbaa !29
  %9 = load ptr, ptr %3, align 8, !tbaa !4
  %10 = getelementptr inbounds nuw %struct.AVCodecContext, ptr %9, i32 0, i32 18
  %11 = load i32, ptr %10, align 8, !tbaa !31
  %12 = icmp sgt i32 %11, 65535
  br i1 %12, label %18, label %13

13:                                               ; preds = %1
  %14 = load ptr, ptr %3, align 8, !tbaa !4
  %15 = getelementptr inbounds nuw %struct.AVCodecContext, ptr %14, i32 0, i32 19
  %16 = load i32, ptr %15, align 4, !tbaa !32
  %17 = icmp sgt i32 %16, 65535
  br i1 %17, label %18, label %20

18:                                               ; preds = %13, %1
  %19 = load ptr, ptr %3, align 8, !tbaa !4
  call void (ptr, i32, ptr, ...) @av_log(ptr noundef %19, i32 noundef 16, ptr noundef @.str.16)
  store i32 -22, ptr %2, align 4
  store i32 1, ptr %5, align 4
  br label %88

20:                                               ; preds = %13
  %21 = load ptr, ptr %4, align 8, !tbaa !29
  %22 = getelementptr inbounds nuw %struct.GIFContext, ptr %21, i32 0, i32 11
  store i32 -1, ptr %22, align 8, !tbaa !33
  %23 = load i32, ptr @ff_lzw_encode_state_size, align 4, !tbaa !36
  %24 = sext i32 %23 to i64
  %25 = call noalias ptr @av_mallocz(i64 noundef %24)
  %26 = load ptr, ptr %4, align 8, !tbaa !29
  %27 = getelementptr inbounds nuw %struct.GIFContext, ptr %26, i32 0, i32 1
  store ptr %25, ptr %27, align 8, !tbaa !37
  %28 = load ptr, ptr %3, align 8, !tbaa !4
  %29 = getelementptr inbounds nuw %struct.AVCodecContext, ptr %28, i32 0, i32 18
  %30 = load i32, ptr %29, align 8, !tbaa !31
  %31 = load ptr, ptr %3, align 8, !tbaa !4
  %32 = getelementptr inbounds nuw %struct.AVCodecContext, ptr %31, i32 0, i32 19
  %33 = load i32, ptr %32, align 4, !tbaa !32
  %34 = mul nsw i32 %30, %33
  %35 = mul nsw i32 %34, 2
  %36 = add nsw i32 %35, 1000
  %37 = load ptr, ptr %4, align 8, !tbaa !29
  %38 = getelementptr inbounds nuw %struct.GIFContext, ptr %37, i32 0, i32 4
  store i32 %36, ptr %38, align 8, !tbaa !38
  %39 = load ptr, ptr %4, align 8, !tbaa !29
  %40 = getelementptr inbounds nuw %struct.GIFContext, ptr %39, i32 0, i32 4
  %41 = load i32, ptr %40, align 8, !tbaa !38
  %42 = sext i32 %41 to i64
  %43 = call noalias ptr @av_malloc(i64 noundef %42)
  %44 = load ptr, ptr %4, align 8, !tbaa !29
  %45 = getelementptr inbounds nuw %struct.GIFContext, ptr %44, i32 0, i32 2
  store ptr %43, ptr %45, align 8, !tbaa !39
  %46 = load ptr, ptr %3, align 8, !tbaa !4
  %47 = getelementptr inbounds nuw %struct.AVCodecContext, ptr %46, i32 0, i32 18
  %48 = load i32, ptr %47, align 8, !tbaa !31
  %49 = sext i32 %48 to i64
  %50 = call noalias ptr @av_malloc(i64 noundef %49)
  %51 = load ptr, ptr %4, align 8, !tbaa !29
  %52 = getelementptr inbounds nuw %struct.GIFContext, ptr %51, i32 0, i32 12
  store ptr %50, ptr %52, align 8, !tbaa !40
  %53 = load ptr, ptr %4, align 8, !tbaa !29
  %54 = getelementptr inbounds nuw %struct.GIFContext, ptr %53, i32 0, i32 12
  %55 = load ptr, ptr %54, align 8, !tbaa !40
  %56 = icmp ne ptr %55, null
  br i1 %56, label %57, label %67

57:                                               ; preds = %20
  %58 = load ptr, ptr %4, align 8, !tbaa !29
  %59 = getelementptr inbounds nuw %struct.GIFContext, ptr %58, i32 0, i32 2
  %60 = load ptr, ptr %59, align 8, !tbaa !39
  %61 = icmp ne ptr %60, null
  br i1 %61, label %62, label %67

62:                                               ; preds = %57
  %63 = load ptr, ptr %4, align 8, !tbaa !29
  %64 = getelementptr inbounds nuw %struct.GIFContext, ptr %63, i32 0, i32 1
  %65 = load ptr, ptr %64, align 8, !tbaa !37
  %66 = icmp ne ptr %65, null
  br i1 %66, label %68, label %67

67:                                               ; preds = %62, %57, %20
  store i32 -12, ptr %2, align 4
  store i32 1, ptr %5, align 4
  br label %88

68:                                               ; preds = %62
  %69 = load ptr, ptr %4, align 8, !tbaa !29
  %70 = getelementptr inbounds nuw %struct.GIFContext, ptr %69, i32 0, i32 9
  %71 = getelementptr inbounds [256 x i32], ptr %70, i64 0, i64 0
  %72 = load ptr, ptr %3, align 8, !tbaa !4
  %73 = getelementptr inbounds nuw %struct.AVCodecContext, ptr %72, i32 0, i32 23
  %74 = load i32, ptr %73, align 8, !tbaa !41
  %75 = call i32 @avpriv_set_systematic_pal2(ptr noundef %71, i32 noundef %74)
  %76 = icmp slt i32 %75, 0
  br i1 %76, label %77, label %87

77:                                               ; preds = %68
  br label %78

78:                                               ; preds = %77
  %79 = load ptr, ptr %3, align 8, !tbaa !4
  %80 = getelementptr inbounds nuw %struct.AVCodecContext, ptr %79, i32 0, i32 23
  %81 = load i32, ptr %80, align 8, !tbaa !41
  %82 = icmp eq i32 %81, 11
  br i1 %82, label %84, label %83

83:                                               ; preds = %78
  call void (ptr, i32, ptr, ...) @av_log(ptr noundef null, i32 noundef 0, ptr noundef @.str.17, ptr noundef @.str.18, ptr noundef @.str.19, i32 noundef 469)
  call void @abort() #11
  unreachable

84:                                               ; preds = %78
  br label %85

85:                                               ; preds = %84
  br label %86

86:                                               ; preds = %85
  br label %87

87:                                               ; preds = %86, %68
  store i32 0, ptr %2, align 4
  store i32 1, ptr %5, align 4
  br label %88

88:                                               ; preds = %87, %67, %18
  call void @llvm.lifetime.end.p0(i64 8, ptr %4) #10
  %89 = load i32, ptr %2, align 4
  ret i32 %89
}