; Function Attrs: cold nounwind optsize uwtable
define internal range(i32 -22, 1) i32 @gif_encode_init(ptr noundef %0) #0 {
  %2 = getelementptr inbounds nuw i8, ptr %0, i64 32
  %3 = load ptr, ptr %2, align 8, !tbaa !4
  %4 = getelementptr inbounds nuw i8, ptr %0, i64 112
  %5 = load i32, ptr %4, align 8, !tbaa !27
  %6 = icmp sgt i32 %5, 65535
  br i1 %6, label %11, label %7

7:                                                ; preds = %1
  %8 = getelementptr inbounds nuw i8, ptr %0, i64 116
  %9 = load i32, ptr %8, align 4, !tbaa !28
  %10 = icmp sgt i32 %9, 65535
  br i1 %10, label %11, label %12

11:                                               ; preds = %7, %1
  tail call void (ptr, i32, ptr, ...) @av_log(ptr noundef nonnull %0, i32 noundef 16, ptr noundef nonnull @.str.16) #9
  br label %45

12:                                               ; preds = %7
  %13 = getelementptr inbounds nuw i8, ptr %3, i64 1088
  store i32 -1, ptr %13, align 8, !tbaa !29
  %14 = load i32, ptr @ff_lzw_encode_state_size, align 4, !tbaa !32
  %15 = sext i32 %14 to i64
  %16 = tail call noalias ptr @av_mallocz(i64 noundef %15) #9
  %17 = getelementptr inbounds nuw i8, ptr %3, i64 8
  store ptr %16, ptr %17, align 8, !tbaa !33
  %18 = load i32, ptr %4, align 8, !tbaa !27
  %19 = load i32, ptr %8, align 4, !tbaa !28
  %20 = shl i32 %18, 1
  %21 = mul i32 %20, %19
  %22 = add nsw i32 %21, 1000
  %23 = getelementptr inbounds nuw i8, ptr %3, i64 32
  store i32 %22, ptr %23, align 8, !tbaa !34
  %24 = sext i32 %22 to i64
  %25 = tail call noalias ptr @av_malloc(i64 noundef %24) #9
  %26 = getelementptr inbounds nuw i8, ptr %3, i64 16
  store ptr %25, ptr %26, align 8, !tbaa !35
  %27 = load i32, ptr %4, align 8, !tbaa !27
  %28 = sext i32 %27 to i64
  %29 = tail call noalias ptr @av_malloc(i64 noundef %28) #9
  %30 = getelementptr inbounds nuw i8, ptr %3, i64 1096
  store ptr %29, ptr %30, align 8, !tbaa !36
  %.not = icmp eq ptr %29, null
  br i1 %.not, label %45, label %31

31:                                               ; preds = %12
  %32 = load ptr, ptr %26, align 8, !tbaa !35
  %.not19 = icmp eq ptr %32, null
  br i1 %.not19, label %45, label %33

33:                                               ; preds = %31
  %34 = load ptr, ptr %17, align 8, !tbaa !33
  %.not20 = icmp eq ptr %34, null
  br i1 %.not20, label %45, label %35

35:                                               ; preds = %33
  %36 = getelementptr inbounds nuw i8, ptr %3, i64 60
  %37 = getelementptr inbounds nuw i8, ptr %0, i64 136
  %38 = load i32, ptr %37, align 8, !tbaa !37
  %39 = tail call i32 @avpriv_set_systematic_pal2(ptr noundef nonnull %36, i32 noundef %38) #9
  %40 = icmp slt i32 %39, 0
  br i1 %40, label %41, label %45

41:                                               ; preds = %35
  %42 = load i32, ptr %37, align 8, !tbaa !37
  %43 = icmp eq i32 %42, 11
  br i1 %43, label %45, label %44

44:                                               ; preds = %41
  tail call void (ptr, i32, ptr, ...) @av_log(ptr noundef null, i32 noundef 0, ptr noundef nonnull @.str.17, ptr noundef nonnull @.str.18, ptr noundef nonnull @.str.19, i32 noundef 469) #9
  tail call void @abort() #10
  unreachable

45:                                               ; preds = %35, %41, %12, %31, %33, %11
  %.0 = phi i32 [ -22, %11 ], [ -12, %33 ], [ -12, %31 ], [ -12, %12 ], [ 0, %41 ], [ 0, %35 ]
  ret i32 %.0
}